; Function Attrs: mustprogress nounwind uwtable
define dso_local { i32, i64 } @_ZNK4llvm16X86FrameLowering17getDwarfFrameBaseERKNS_15MachineFunctionE(ptr noundef nonnull align 8 dereferenceable(60) %0, ptr noundef nonnull align 8 dereferenceable(1041) %1) unnamed_addr #2 align 2 {
  %3 = getelementptr inbounds nuw i8, ptr %1, i64 16
  %4 = load ptr, ptr %3, align 8
  %5 = load ptr, ptr %4, align 8
  %6 = getelementptr inbounds i8, ptr %5, i64 200
  %7 = load ptr, ptr %6, align 8
  %8 = tail call noundef ptr %7(ptr noundef nonnull align 8 dereferenceable(288) %4) #23
  %9 = load ptr, ptr %8, align 8
  %10 = getelementptr inbounds i8, ptr %9, i64 608
  %11 = load ptr, ptr %10, align 8
  %12 = tail call i32 %11(ptr noundef nonnull align 8 dereferenceable(308) %8, ptr noundef nonnull align 8 dereferenceable(1041) %1) #23
  %13 = load ptr, ptr %0, align 8
  %14 = getelementptr inbounds i8, ptr %13, i64 368
  %15 = load ptr, ptr %14, align 8
  %16 = tail call i32 %15(ptr noundef nonnull align 8 dereferenceable(60) %0, ptr noundef nonnull align 8 dereferenceable(1041) %1) #23
  %17 = icmp eq i32 %16, %12
  br i1 %17, label %18, label %.critedge

18:                                               ; preds = %2
  %19 = getelementptr inbounds nuw i8, ptr %1, i64 40
  %20 = load ptr, ptr %19, align 8
  %21 = getelementptr inbounds nuw i8, ptr %20, i64 160
  %22 = load i8, ptr %21, align 8
  %23 = trunc i8 %22 to i1
  br i1 %23, label %24, label %.critedge

24:                                               ; preds = %18
  %25 = getelementptr inbounds nuw i8, ptr %1, i64 48
  %26 = load ptr, ptr %25, align 8
  %27 = getelementptr inbounds nuw i8, ptr %26, i64 48
  %28 = load i64, ptr %27, align 8
  %29 = load ptr, ptr %0, align 8
  %30 = getelementptr inbounds i8, ptr %29, i64 360
  %31 = load ptr, ptr %30, align 8
  %32 = tail call noundef i32 %31(ptr noundef nonnull align 8 dereferenceable(60) %0, ptr noundef nonnull align 8 dereferenceable(1041) %1) #23
  %33 = sext i32 %32 to i64
  %34 = add i64 %28, %33
  %35 = sub i64 0, %34
  %.sroa.3.8.extract.trunc = trunc i64 %35 to i32
  %.sroa.6.8.extract.shift = and i64 %35, -4294967296
  br label %.critedge

.critedge:                                        ; preds = %18, %2, %24
  %.sroa.0.0 = phi i32 [ 1, %24 ], [ 0, %2 ], [ 0, %18 ]
  %.sroa.3.0 = phi i32 [ %.sroa.3.8.extract.trunc, %24 ], [ %12, %2 ], [ %12, %18 ]
  %.sroa.6.0 = phi i64 [ %.sroa.6.8.extract.shift, %24 ], [ 0, %2 ], [ 0, %18 ]
  %.fca.0.insert = insertvalue { i32, i64 } poison, i32 %.sroa.0.0, 0
  %.sroa.3.8.insert.ext = zext i32 %.sroa.3.0 to i64
  %.sroa.3.8.insert.insert = or disjoint i64 %.sroa.6.0, %.sroa.3.8.insert.ext
  %.fca.1.insert = insertvalue { i32, i64 } %.fca.0.insert, i64 %.sroa.3.8.insert.insert, 1
  ret { i32, i64 } %.fca.1.insert
}